target datalayout = "e-m:e-p270:32:32-p271:32:32-p272:64:64-i64:64-i128:128-f80:128-n8:16:32:64-S128"
target triple = "x86_64-pc-linux-gnu"

; Function Attrs: nounwind uwtable
define i32 @gvputc(ptr noundef %0, i32 noundef %1) #0 {
  %3 = alloca i32, align 4
  %4 = alloca ptr, align 8
  %5 = alloca i32, align 4
  %6 = alloca i8, align 1
  %7 = alloca i32, align 4
  store ptr %0, ptr %4, align 8, !tbaa !3
  store i32 %1, ptr %5, align 4, !tbaa !58
  call void @llvm.lifetime.start.p0(i64 1, ptr %6) #14
  %8 = load i32, ptr %5, align 4, !tbaa !58
  %9 = trunc i32 %8 to i8
  store i8 %9, ptr %6, align 1, !tbaa !76
  %10 = load ptr, ptr %4, align 8, !tbaa !3
  %11 = call i64 @gvwrite(ptr noundef %10, ptr noundef %6, i64 noundef 1)
  %12 = icmp ne i64 %11, 1
  br i1 %12, label %13, label %14

13:                                               ; preds = %2
  store i32 -1, ptr %3, align 4
  store i32 1, ptr %7, align 4
  br label %16

14:                                               ; preds = %2
  %15 = load i32, ptr %5, align 4, !tbaa !58
  store i32 %15, ptr %3, align 4
  store i32 1, ptr %7, align 4
  br label %16

16:                                               ; preds = %14, %13
  call void @llvm.lifetime.end.p0(i64 1, ptr %6) #14
  %17 = load i32, ptr %3, align 4
  ret i32 %17
}