; Function Attrs: nounwind uwtable
define noundef i32 @gvputc(ptr noundef %0, i32 noundef %1) local_unnamed_addr #0 {
  %3 = alloca i8, align 1
  call void @llvm.lifetime.start.p0(i64 1, ptr nonnull %3) #21
  %4 = trunc i32 %1 to i8
  store i8 %4, ptr %3, align 1, !tbaa !54
  %5 = call i64 @gvwrite(ptr noundef %0, ptr noundef nonnull %3, i64 noundef 1)
  %.not = icmp eq i64 %5, 1
  %. = select i1 %.not, i32 %1, i32 -1
  call void @llvm.lifetime.end.p0(i64 1, ptr nonnull %3) #21
  ret i32 %.
}